target datalayout = "e-m:e-p270:32:32-p271:32:32-p272:64:64-i64:64-i128:128-f80:128-n8:16:32:64-S128"
target triple = "x86_64-pc-linux-gnu"

; Function Attrs: nounwind uwtable
define internal i32 @lzma_4862e0(ptr noundef %0, ptr noundef %1, ptr noundef %2, ptr noundef %3, ptr noundef %4, i32 noundef %5) #0 {
  %7 = alloca i32, align 4
  %8 = alloca ptr, align 8
  %9 = alloca ptr, align 8
  %10 = alloca ptr, align 8
  %11 = alloca ptr, align 8
  %12 = alloca ptr, align 8
  %13 = alloca i32, align 4
  %14 = alloca i32, align 4
  %15 = alloca i32, align 4
  %16 = alloca i32, align 4
  %17 = alloca i32, align 4
  %18 = alloca ptr, align 8
  store ptr %0, ptr %8, align 8
  store ptr %1, ptr %9, align 8
  store ptr %2, ptr %10, align 8
  store ptr %3, ptr %11, align 8
  store ptr %4, ptr %12, align 8
  store i32 %5, ptr %13, align 4
  %19 = load ptr, ptr %10, align 8
  %20 = load i32, ptr %19, align 4
  store i32 %20, ptr %14, align 4
  store i32 1, ptr %17, align 4
  %21 = load ptr, ptr %9, align 8
  %22 = load ptr, ptr %21, align 8
  store ptr %22, ptr %18, align 8
  %23 = load i32, ptr %14, align 4
  %24 = icmp ne i32 %23, 0
  br i1 %24, label %25, label %57

25:                                               ; preds = %6
  %26 = load i32, ptr %14, align 4
  %27 = and i32 %26, -2147483648
  %28 = icmp ne i32 %27, 0
  br i1 %28, label %57, label %29

29:                                               ; preds = %25
  %30 = load i32, ptr %14, align 4
  store i32 %30, ptr %16, align 4
  br label %31

31:                                               ; preds = %53, %29
  %32 = load i32, ptr %17, align 4
  %33 = load i32, ptr %17, align 4
  %34 = add i32 %32, %33
  store i32 %34, ptr %15, align 4
  %35 = load ptr, ptr %18, align 8
  %36 = load i32, ptr %15, align 4
  %37 = zext i32 %36 to i64
  %38 = getelementptr inbounds i8, ptr %35, i64 %37
  %39 = load ptr, ptr %9, align 8
  store ptr %38, ptr %39, align 8
  %40 = load ptr, ptr %8, align 8
  %41 = load ptr, ptr %9, align 8
  %42 = load ptr, ptr %12, align 8
  %43 = load i32, ptr %13, align 4
  %44 = call i32 @lzma_486248(ptr noundef %40, ptr noundef %41, ptr noundef %42, i32 noundef %43)
  store i32 %44, ptr %17, align 4
  %45 = icmp eq i32 %44, -1
  br i1 %45, label %46, label %47

46:                                               ; preds = %31
  store i32 -1, ptr %7, align 4
  br label %68

47:                                               ; preds = %31
  %48 = load i32, ptr %15, align 4
  %49 = load i32, ptr %17, align 4
  %50 = add i32 %49, %48
  store i32 %50, ptr %17, align 4
  %51 = load i32, ptr %16, align 4
  %52 = add i32 %51, -1
  store i32 %52, ptr %16, align 4
  br label %53

53:                                               ; preds = %47
  %54 = load i32, ptr %16, align 4
  %55 = icmp ne i32 %54, 0
  br i1 %55, label %31, label %56

56:                                               ; preds = %53
  br label %57

57:                                               ; preds = %56, %25, %6
  %58 = load i32, ptr %14, align 4
  %59 = and i32 %58, 255
  %60 = shl i32 1, %59
  %61 = load ptr, ptr %10, align 8
  store i32 %60, ptr %61, align 4
  %62 = load ptr, ptr %10, align 8
  %63 = load i32, ptr %62, align 4
  %64 = load i32, ptr %17, align 4
  %65 = sub i32 %64, %63
  store i32 %65, ptr %17, align 4
  %66 = load i32, ptr %17, align 4
  %67 = load ptr, ptr %11, align 8
  store i32 %66, ptr %67, align 4
  store i32 0, ptr %7, align 4
  br label %68

68:                                               ; preds = %57, %46
  %69 = load i32, ptr %7, align 4
  ret i32 %69
}

; Function Attrs: nounwind uwtable
define internal i32 @lzma_4863da(i32 noundef %0, ptr noundef %1, ptr noundef %2, ptr noundef %3, ptr noundef %4, ptr noundef %5, i32 noundef %6) #0 {
  %8 = alloca i32, align 4
  %9 = alloca i32, align 4
  %10 = alloca ptr, align 8
  %11 = alloca ptr, align 8
  %12 = alloca ptr, align 8
  %13 = alloca ptr, align 8
  %14 = alloca ptr, align 8
  %15 = alloca i32, align 4
  %16 = alloca i32, align 4
  %17 = alloca ptr, align 8
  store i32 %0, ptr %9, align 4
  store ptr %1, ptr %10, align 8
  store ptr %2, ptr %11, align 8
  store ptr %3, ptr %12, align 8
  store ptr %4, ptr %13, align 8
  store ptr %5, ptr %14, align 8
  store i32 %6, ptr %15, align 4
  %18 = load ptr, ptr %11, align 8
  %19 = load ptr, ptr %18, align 8
  store ptr %19, ptr %17, align 8
  %20 = load ptr, ptr %10, align 8
  %21 = load ptr, ptr %11, align 8
  %22 = load ptr, ptr %14, align 8
  %23 = load i32, ptr %15, align 4
  %24 = call i32 @lzma_486248(ptr noundef %20, ptr noundef %21, ptr noundef %22, i32 noundef %23)
  store i32 %24, ptr %16, align 4
  %25 = icmp eq i32 %24, -1
  br i1 %25, label %26, label %27

26:                                               ; preds = %7
  store i32 -1, ptr %8, align 4
  br label %104

27:                                               ; preds = %7
  %28 = load i32, ptr %16, align 4
  %29 = icmp ne i32 %28, 0
  br i1 %29, label %30, label %82

30:                                               ; preds = %27
  %31 = load ptr, ptr %17, align 8
  %32 = getelementptr inbounds i8, ptr %31, i64 2
  %33 = load ptr, ptr %11, align 8
  store ptr %32, ptr %33, align 8
  %34 = load ptr, ptr %10, align 8
  %35 = load ptr, ptr %11, align 8
  %36 = load ptr, ptr %14, align 8
  %37 = load i32, ptr %15, align 4
  %38 = call i32 @lzma_486248(ptr noundef %34, ptr noundef %35, ptr noundef %36, i32 noundef %37)
  store i32 %38, ptr %16, align 4
  %39 = icmp eq i32 %38, -1
  br i1 %39, label %40, label %41

40:                                               ; preds = %30
  store i32 -1, ptr %8, align 4
  br label %104

41:                                               ; preds = %30
  %42 = load i32, ptr %16, align 4
  %43 = icmp ne i32 %42, 0
  br i1 %43, label %44, label %60

44:                                               ; preds = %41
  %45 = load ptr, ptr %12, align 8
  store i32 8, ptr %45, align 4
  %46 = load ptr, ptr %17, align 8
  %47 = getelementptr inbounds i8, ptr %46, i64 516
  %48 = load ptr, ptr %11, align 8
  store ptr %47, ptr %48, align 8
  %49 = load ptr, ptr %10, align 8
  %50 = load ptr, ptr %11, align 8
  %51 = load ptr, ptr %12, align 8
  %52 = load ptr, ptr %14, align 8
  %53 = load i32, ptr %15, align 4
  %54 = call i32 @lzma_4862e0(ptr noundef %49, ptr noundef %50, ptr noundef %51, ptr noundef %16, ptr noundef %52, i32 noundef %53)
  %55 = icmp eq i32 %54, -1
  br i1 %55, label %56, label %57

56:                                               ; preds = %44
  store i32 -1, ptr %8, align 4
  br label %104

57:                                               ; preds = %44
  %58 = load i32, ptr %16, align 4
  %59 = add i32 %58, 16
  store i32 %59, ptr %16, align 4
  br label %81

60:                                               ; preds = %41
  %61 = load i32, ptr %9, align 4
  %62 = shl i32 %61, 4
  store i32 %62, ptr %16, align 4
  %63 = load ptr, ptr %12, align 8
  store i32 3, ptr %63, align 4
  %64 = load ptr, ptr %17, align 8
  %65 = getelementptr inbounds i8, ptr %64, i64 260
  %66 = load i32, ptr %16, align 4
  %67 = zext i32 %66 to i64
  %68 = getelementptr inbounds i8, ptr %65, i64 %67
  %69 = load ptr, ptr %11, align 8
  store ptr %68, ptr %69, align 8
  %70 = load ptr, ptr %10, align 8
  %71 = load ptr, ptr %11, align 8
  %72 = load ptr, ptr %12, align 8
  %73 = load ptr, ptr %14, align 8
  %74 = load i32, ptr %15, align 4
  %75 = call i32 @lzma_4862e0(ptr noundef %70, ptr noundef %71, ptr noundef %72, ptr noundef %16, ptr noundef %73, i32 noundef %74)
  %76 = icmp eq i32 %75, -1
  br i1 %76, label %77, label %78

77:                                               ; preds = %60
  store i32 -1, ptr %8, align 4
  br label %104

78:                                               ; preds = %60
  %79 = load i32, ptr %16, align 4
  %80 = add i32 %79, 8
  store i32 %80, ptr %16, align 4
  br label %81

81:                                               ; preds = %78, %57
  br label %101

82:                                               ; preds = %27
  %83 = load i32, ptr %9, align 4
  %84 = shl i32 %83, 4
  store i32 %84, ptr %16, align 4
  %85 = load ptr, ptr %12, align 8
  store i32 3, ptr %85, align 4
  %86 = load ptr, ptr %17, align 8
  %87 = getelementptr inbounds i8, ptr %86, i64 4
  %88 = load i32, ptr %16, align 4
  %89 = zext i32 %88 to i64
  %90 = getelementptr inbounds i8, ptr %87, i64 %89
  %91 = load ptr, ptr %11, align 8
  store ptr %90, ptr %91, align 8
  %92 = load ptr, ptr %10, align 8
  %93 = load ptr, ptr %11, align 8
  %94 = load ptr, ptr %12, align 8
  %95 = load ptr, ptr %14, align 8
  %96 = load i32, ptr %15, align 4
  %97 = call i32 @lzma_4862e0(ptr noundef %92, ptr noundef %93, ptr noundef %94, ptr noundef %16, ptr noundef %95, i32 noundef %96)
  %98 = icmp eq i32 %97, -1
  br i1 %98, label %99, label %100

99:                                               ; preds = %82
  store i32 -1, ptr %8, align 4
  br label %104

100:                                              ; preds = %82
  br label %101

101:                                              ; preds = %100, %81
  %102 = load i32, ptr %16, align 4
  %103 = load ptr, ptr %13, align 8
  store i32 %102, ptr %103, align 4
  store i32 0, ptr %8, align 4
  br label %104

104:                                              ; preds = %101, %99, %77, %56, %40, %26
  %105 = load i32, ptr %8, align 4
  ret i32 %105
}