; Function Attrs: nofree norecurse nosync nounwind memory(readwrite, inaccessiblemem: none) uwtable
define internal fastcc noundef i32 @lzma_4863da(i32 noundef %0, ptr nocapture noundef %1, ptr nocapture noundef %2, ptr nocapture noundef %3, ptr nocapture noundef writeonly %4, ptr noundef %5, i32 noundef %6) unnamed_addr #3 {
  %8 = load ptr, ptr %2, align 8
  %9 = tail call fastcc i32 @lzma_486248(ptr noundef %1, ptr noundef nonnull %2, ptr noundef %5, i32 noundef %6), !range !4
  switch i32 %9, label %10 [
    i32 -1, label %lzma_4862e0.exit.thread
    i32 0, label %44
  ]

10:                                               ; preds = %7
  %11 = getelementptr inbounds i8, ptr %8, i64 2
  store ptr %11, ptr %2, align 8
  %12 = tail call fastcc i32 @lzma_486248(ptr noundef %1, ptr noundef nonnull %2, ptr noundef %5, i32 noundef %6), !range !4
  switch i32 %12, label %13 [
    i32 -1, label %lzma_4862e0.exit.thread
    i32 0, label %27
  ]

13:                                               ; preds = %10
  store i32 8, ptr %3, align 4
  %14 = getelementptr inbounds i8, ptr %8, i64 516
  store ptr %14, ptr %2, align 8
  %15 = load i32, ptr %3, align 4
  %or.cond.i = icmp sgt i32 %15, 0
  br i1 %or.cond.i, label %.preheader.i, label %.loopexit

.preheader.i:                                     ; preds = %13, %21
  %.025.i = phi i32 [ %23, %21 ], [ %15, %13 ]
  %.024.i = phi i32 [ %22, %21 ], [ 1, %13 ]
  %16 = shl i32 %.024.i, 1
  %17 = zext i32 %16 to i64
  %18 = getelementptr inbounds i8, ptr %14, i64 %17
  store ptr %18, ptr %2, align 8
  %19 = tail call fastcc i32 @lzma_486248(ptr noundef %1, ptr noundef nonnull %2, ptr noundef %5, i32 noundef %6), !range !4
  %20 = icmp eq i32 %19, -1
  br i1 %20, label %lzma_4862e0.exit.thread, label %21

21:                                               ; preds = %.preheader.i
  %22 = add nuw i32 %19, %16
  %23 = add i32 %.025.i, -1
  %.not30.i = icmp eq i32 %23, 0
  br i1 %.not30.i, label %.loopexit, label %.preheader.i

.loopexit:                                        ; preds = %21, %13
  %.1.i = phi i32 [ 1, %13 ], [ %22, %21 ]
  %24 = and i32 %15, 255
  %25 = shl nuw i32 1, %24
  store i32 %25, ptr %3, align 4
  %reass.sub74 = sub i32 %.1.i, %25
  %26 = add i32 %reass.sub74, 16
  br label %61

27:                                               ; preds = %10
  %28 = shl i32 %0, 4
  store i32 3, ptr %3, align 4
  %29 = getelementptr inbounds i8, ptr %8, i64 260
  %30 = zext i32 %28 to i64
  %31 = getelementptr inbounds i8, ptr %29, i64 %30
  store ptr %31, ptr %2, align 8
  %32 = load i32, ptr %3, align 4
  %or.cond.i41 = icmp sgt i32 %32, 0
  br i1 %or.cond.i41, label %.preheader.i45, label %.loopexit70

.preheader.i45:                                   ; preds = %27, %38
  %.025.i46 = phi i32 [ %40, %38 ], [ %32, %27 ]
  %.024.i47 = phi i32 [ %39, %38 ], [ 1, %27 ]
  %33 = shl i32 %.024.i47, 1
  %34 = zext i32 %33 to i64
  %35 = getelementptr inbounds i8, ptr %31, i64 %34
  store ptr %35, ptr %2, align 8
  %36 = tail call fastcc i32 @lzma_486248(ptr noundef %1, ptr noundef nonnull %2, ptr noundef %5, i32 noundef %6), !range !4
  %37 = icmp eq i32 %36, -1
  br i1 %37, label %lzma_4862e0.exit.thread, label %38

38:                                               ; preds = %.preheader.i45
  %39 = add nuw i32 %36, %33
  %40 = add i32 %.025.i46, -1
  %.not30.i48 = icmp eq i32 %40, 0
  br i1 %.not30.i48, label %.loopexit70, label %.preheader.i45

.loopexit70:                                      ; preds = %38, %27
  %.1.i43 = phi i32 [ 1, %27 ], [ %39, %38 ]
  %41 = and i32 %32, 255
  %42 = shl nuw i32 1, %41
  store i32 %42, ptr %3, align 4
  %reass.sub = sub i32 %.1.i43, %42
  %43 = add i32 %reass.sub, 8
  br label %61

44:                                               ; preds = %7
  %45 = shl i32 %0, 4
  store i32 3, ptr %3, align 4
  %46 = getelementptr inbounds i8, ptr %8, i64 4
  %47 = zext i32 %45 to i64
  %48 = getelementptr inbounds i8, ptr %46, i64 %47
  store ptr %48, ptr %2, align 8
  %49 = load i32, ptr %3, align 4
  %or.cond.i50 = icmp sgt i32 %49, 0
  br i1 %or.cond.i50, label %.preheader.i54, label %lzma_4862e0.exit58

.preheader.i54:                                   ; preds = %44, %55
  %.025.i55 = phi i32 [ %57, %55 ], [ %49, %44 ]
  %.024.i56 = phi i32 [ %56, %55 ], [ 1, %44 ]
  %50 = shl i32 %.024.i56, 1
  %51 = zext i32 %50 to i64
  %52 = getelementptr inbounds i8, ptr %48, i64 %51
  store ptr %52, ptr %2, align 8
  %53 = tail call fastcc i32 @lzma_486248(ptr noundef %1, ptr noundef nonnull %2, ptr noundef %5, i32 noundef %6), !range !4
  %54 = icmp eq i32 %53, -1
  br i1 %54, label %lzma_4862e0.exit.thread, label %55

55:                                               ; preds = %.preheader.i54
  %56 = add nuw i32 %53, %50
  %57 = add i32 %.025.i55, -1
  %.not30.i57 = icmp eq i32 %57, 0
  br i1 %.not30.i57, label %lzma_4862e0.exit58, label %.preheader.i54

lzma_4862e0.exit58:                               ; preds = %55, %44
  %.1.i52 = phi i32 [ 1, %44 ], [ %56, %55 ]
  %58 = and i32 %49, 255
  %59 = shl nuw i32 1, %58
  store i32 %59, ptr %3, align 4
  %60 = sub i32 %.1.i52, %59
  br label %61

61:                                               ; preds = %lzma_4862e0.exit58, %.loopexit, %.loopexit70
  %.3 = phi i32 [ %26, %.loopexit ], [ %43, %.loopexit70 ], [ %60, %lzma_4862e0.exit58 ]
  store i32 %.3, ptr %4, align 4
  br label %lzma_4862e0.exit.thread

lzma_4862e0.exit.thread:                          ; preds = %.preheader.i54, %.preheader.i45, %.preheader.i, %10, %7, %61
  %.0 = phi i32 [ 0, %61 ], [ %9, %7 ], [ %12, %10 ], [ -1, %.preheader.i ], [ -1, %.preheader.i45 ], [ -1, %.preheader.i54 ]
  ret i32 %.0
}